; Function Attrs: nounwind uwtable
define noundef i32 @Gia_SweeperRun(ptr noundef %0, ptr noundef readonly captures(none) %1, ptr noundef %2, i32 noundef %3) local_unnamed_addr #0 {
  %5 = tail call ptr @Gia_SweeperExtractUserLogic(ptr noundef %0, ptr noundef %1, ptr noundef null, ptr noundef null)
  %.not = icmp eq ptr %2, null
  br i1 %.not, label %15, label %6

6:                                                ; preds = %4
  %.not25 = icmp eq i32 %3, 0
  br i1 %.not25, label %.critedge27, label %7

7:                                                ; preds = %6
  %8 = tail call i32 (ptr, ...) @printf(ptr noundef nonnull dereferenceable(1) @.str.21, ptr noundef nonnull %2)
  tail call void @Gia_ManPrintStats(ptr noundef %5, ptr noundef null) #23
  br label %.critedge27

.critedge27:                                      ; preds = %6, %7
  %9 = tail call ptr (...) @Abc_FrameGetGlobalFrame() #23
  tail call void @Abc_FrameUpdateGia(ptr noundef %9, ptr noundef %5) #23
  %10 = tail call ptr (...) @Abc_FrameGetGlobalFrame() #23
  %11 = tail call i32 @Cmd_CommandExecute(ptr noundef %10, ptr noundef nonnull %2) #23
  %12 = tail call ptr (...) @Abc_FrameGetGlobalFrame() #23
  %13 = tail call ptr @Abc_FrameGetGia(ptr noundef %12) #23
  br i1 %.not25, label %15, label %14

14:                                               ; preds = %.critedge27
  tail call void @Gia_ManPrintStats(ptr noundef %13, ptr noundef null) #23
  br label %15

15:                                               ; preds = %.critedge27, %14, %4
  %.023 = phi ptr [ %13, %14 ], [ %13, %.critedge27 ], [ %5, %4 ]
  %16 = tail call ptr @Gia_SweeperGraft(ptr noundef %0, ptr noundef null, ptr noundef %.023)
  tail call void @Gia_ManStop(ptr noundef %.023) #23
  %17 = getelementptr i8, ptr %1, i64 4
  %.val30 = load i32, ptr %17, align 4, !tbaa !3
  %18 = icmp sgt i32 %.val30, 0
  br i1 %18, label %.lr.ph, label %.critedge

.lr.ph:                                           ; preds = %15
  %19 = getelementptr i8, ptr %1, i64 8
  %.val29 = load ptr, ptr %19, align 8, !tbaa !34
  %20 = getelementptr i8, ptr %16, i64 8
  %.val28 = load ptr, ptr %20, align 8, !tbaa !34
  %21 = getelementptr inbounds nuw i8, ptr %0, i64 768
  %22 = load ptr, ptr %21, align 8, !tbaa !10
  %23 = getelementptr inbounds nuw i8, ptr %22, i64 16
  %24 = load ptr, ptr %23, align 8, !tbaa !35
  %25 = getelementptr i8, ptr %24, i64 8
  %.val6.i = load ptr, ptr %25, align 8, !tbaa !34
  br label %26

26:                                               ; preds = %.lr.ph, %26
  %indvars.iv = phi i64 [ 0, %.lr.ph ], [ %indvars.iv.next, %26 ]
  %27 = getelementptr inbounds nuw i32, ptr %.val29, i64 %indvars.iv
  %28 = load i32, ptr %27, align 4, !tbaa !44
  %29 = getelementptr inbounds nuw i32, ptr %.val28, i64 %indvars.iv
  %30 = load i32, ptr %29, align 4, !tbaa !44
  %31 = sext i32 %28 to i64
  %32 = getelementptr inbounds i32, ptr %.val6.i, i64 %31
  store i32 %30, ptr %32, align 4, !tbaa !44
  %indvars.iv.next = add nuw nsw i64 %indvars.iv, 1
  %.val = load i32, ptr %17, align 4, !tbaa !3
  %33 = sext i32 %.val to i64
  %34 = icmp slt i64 %indvars.iv.next, %33
  br i1 %34, label %26, label %.critedge.thread, !llvm.loop !134

.critedge:                                        ; preds = %15
  %.phi.trans.insert = getelementptr inbounds nuw i8, ptr %16, i64 8
  %.pre = load ptr, ptr %.phi.trans.insert, align 8, !tbaa !34
  %.not.i = icmp eq ptr %.pre, null
  br i1 %.not.i, label %Vec_IntFree.exit, label %.critedge.thread

.critedge.thread:                                 ; preds = %26, %.critedge
  %35 = phi ptr [ %.pre, %.critedge ], [ %.val28, %26 ]
  tail call void @free(ptr noundef nonnull %35) #23
  br label %Vec_IntFree.exit

Vec_IntFree.exit:                                 ; preds = %.critedge, %.critedge.thread
  tail call void @free(ptr noundef nonnull %16) #23
  ret i32 1
}